; ModuleID = 'source-C-CXX/61/1103.c'
source_filename = "source-C-CXX/61/1103.c"
target datalayout = "e-m:e-p270:32:32-p271:32:32-p272:64:64-i64:64-f80:128-n8:16:32:64-S128"
target triple = "x86_64-pc-linux-gnu"

; Function Attrs: nounwind sspstrong uwtable
define dso_local i32 @main() local_unnamed_addr #0 {
  %1 = alloca [100 x i8], align 16
  %2 = alloca [100 x i8], align 16
  %3 = getelementptr inbounds [100 x i8], [100 x i8]* %1, i64 0, i64 0
  call void @llvm.lifetime.start.p0i8(i64 100, i8* nonnull %3) #5
  %4 = getelementptr inbounds [100 x i8], [100 x i8]* %2, i64 0, i64 0
  call void @llvm.lifetime.start.p0i8(i64 100, i8* nonnull %4) #5
  %5 = call i32 (i8*, ...) bitcast (i32 (...)* @gets to i32 (i8*, ...)*)(i8* nonnull %3) #5
  %6 = call i64 @strlen(i8* noundef nonnull %3) #6
  %7 = trunc i64 %6 to i32
  %8 = load i8, i8* %3, align 16, !tbaa !5
  store i8 %8, i8* %4, align 16, !tbaa !5
  %9 = icmp sgt i32 %7, 1
  br i1 %9, label %10, label %57

10:                                               ; preds = %0
  %11 = and i64 %6, 4294967295
  %12 = add nsw i64 %11, -1
  %13 = and i64 %12, 1
  %14 = icmp eq i64 %11, 2
  br i1 %14, label %39, label %15

15:                                               ; preds = %10
  %16 = and i64 %12, -2
  br label %17

17:                                               ; preds = %70, %15
  %18 = phi i64 [ 1, %15 ], [ %72, %70 ]
  %19 = phi i32 [ 1, %15 ], [ %71, %70 ]
  %20 = phi i64 [ %16, %15 ], [ %73, %70 ]
  %21 = getelementptr inbounds [100 x i8], [100 x i8]* %1, i64 0, i64 %18
  %22 = load i8, i8* %21, align 1, !tbaa !5
  %23 = icmp eq i8 %22, 32
  br i1 %23, label %24, label %29

24:                                               ; preds = %17
  %25 = add nsw i64 %18, -1
  %26 = getelementptr inbounds [100 x i8], [100 x i8]* %1, i64 0, i64 %25
  %27 = load i8, i8* %26, align 1, !tbaa !5
  %28 = icmp eq i8 %27, 32
  br i1 %28, label %33, label %29

29:                                               ; preds = %24, %17
  %30 = sext i32 %19 to i64
  %31 = getelementptr inbounds [100 x i8], [100 x i8]* %2, i64 0, i64 %30
  store i8 %22, i8* %31, align 1, !tbaa !5
  %32 = add nsw i32 %19, 1
  br label %33

33:                                               ; preds = %24, %29
  %34 = phi i32 [ %32, %29 ], [ %19, %24 ]
  %35 = add nuw nsw i64 %18, 1
  %36 = getelementptr inbounds [100 x i8], [100 x i8]* %1, i64 0, i64 %35
  %37 = load i8, i8* %36, align 1, !tbaa !5
  %38 = icmp eq i8 %37, 32
  br i1 %38, label %62, label %66

39:                                               ; preds = %70, %10
  %40 = phi i32 [ undef, %10 ], [ %71, %70 ]
  %41 = phi i64 [ 1, %10 ], [ %72, %70 ]
  %42 = phi i32 [ 1, %10 ], [ %71, %70 ]
  %43 = icmp eq i64 %13, 0
  br i1 %43, label %57, label %44

44:                                               ; preds = %39
  %45 = getelementptr inbounds [100 x i8], [100 x i8]* %1, i64 0, i64 %41
  %46 = load i8, i8* %45, align 1, !tbaa !5
  %47 = icmp eq i8 %46, 32
  br i1 %47, label %48, label %53

48:                                               ; preds = %44
  %49 = add nsw i64 %41, -1
  %50 = getelementptr inbounds [100 x i8], [100 x i8]* %1, i64 0, i64 %49
  %51 = load i8, i8* %50, align 1, !tbaa !5
  %52 = icmp eq i8 %51, 32
  br i1 %52, label %57, label %53

53:                                               ; preds = %48, %44
  %54 = sext i32 %42 to i64
  %55 = getelementptr inbounds [100 x i8], [100 x i8]* %2, i64 0, i64 %54
  store i8 %46, i8* %55, align 1, !tbaa !5
  %56 = add nsw i32 %42, 1
  br label %57

57:                                               ; preds = %39, %48, %53, %0
  %58 = phi i32 [ 1, %0 ], [ %40, %39 ], [ %56, %53 ], [ %42, %48 ]
  %59 = sext i32 %58 to i64
  %60 = getelementptr inbounds [100 x i8], [100 x i8]* %2, i64 0, i64 %59
  store i8 0, i8* %60, align 1, !tbaa !5
  %61 = call i32 @puts(i8* nonnull %4)
  call void @llvm.lifetime.end.p0i8(i64 100, i8* nonnull %4) #5
  call void @llvm.lifetime.end.p0i8(i64 100, i8* nonnull %3) #5
  ret i32 0

62:                                               ; preds = %33
  %63 = getelementptr inbounds [100 x i8], [100 x i8]* %1, i64 0, i64 %18
  %64 = load i8, i8* %63, align 1, !tbaa !5
  %65 = icmp eq i8 %64, 32
  br i1 %65, label %70, label %66

66:                                               ; preds = %62, %33
  %67 = sext i32 %34 to i64
  %68 = getelementptr inbounds [100 x i8], [100 x i8]* %2, i64 0, i64 %67
  store i8 %37, i8* %68, align 1, !tbaa !5
  %69 = add nsw i32 %34, 1
  br label %70

70:                                               ; preds = %66, %62
  %71 = phi i32 [ %69, %66 ], [ %34, %62 ]
  %72 = add nuw nsw i64 %18, 2
  %73 = add i64 %20, -2
  %74 = icmp eq i64 %73, 0
  br i1 %74, label %39, label %17, !llvm.loop !8
}

; Function Attrs: argmemonly mustprogress nofree nosync nounwind willreturn
declare void @llvm.lifetime.start.p0i8(i64 immarg, i8* nocapture) #1

declare i32 @gets(...) local_unnamed_addr #2

; Function Attrs: argmemonly mustprogress nofree nounwind readonly willreturn
declare i64 @strlen(i8* nocapture) local_unnamed_addr #3

; Function Attrs: nofree nounwind
declare noundef i32 @puts(i8* nocapture noundef readonly) local_unnamed_addr #4

; Function Attrs: argmemonly mustprogress nofree nosync nounwind willreturn
declare void @llvm.lifetime.end.p0i8(i64 immarg, i8* nocapture) #1


!llvm.module.flags = !{!0, !1, !2, !3}
!llvm.ident = !{!4}

!0 = !{i32 1, !"wchar_size", i32 4}
!1 = !{i32 7, !"PIC Level", i32 2}
!2 = !{i32 7, !"PIE Level", i32 2}
!3 = !{i32 7, !"uwtable", i32 1}
!4 = !{!"clang version 13.0.0"}
!5 = !{!6, !6, i64 0}
!6 = !{!"omnipotent char", !7, i64 0}
!7 = !{!"Simple C/C++ TBAA"}
!8 = distinct !{!8, !9}
!9 = !{!"llvm.loop.mustprogress"}
